; Function Attrs: mustprogress nofree norecurse nosync nounwind willreturn memory(argmem: write) uwtable
define dso_local void @_ZN17btTypedConstraintC2E21btTypedConstraintTypeR11btRigidBodyS2_(ptr nocapture noundef nonnull writeonly align 8 dereferenceable(72) %this, i32 noundef %type, ptr noundef nonnull align 8 dereferenceable(744) %rbA, ptr noundef nonnull align 8 dereferenceable(744) %rbB) unnamed_addr #2 align 2 {
entry:
  %0 = getelementptr inbounds i8, ptr %this, i64 8
  store i32 %type, ptr %0, align 8
  store ptr getelementptr inbounds ({ [13 x ptr] }, ptr @_ZTV17btTypedConstraint, i64 0, i32 0, i64 2), ptr %this, align 8
  %m_userConstraintType = getelementptr inbounds i8, ptr %this, i64 12
  store i32 -1, ptr %m_userConstraintType, align 4
  %1 = getelementptr inbounds i8, ptr %this, i64 16
  store ptr inttoptr (i64 -1 to ptr), ptr %1, align 8
  %m_breakingImpulseThreshold = getelementptr inbounds i8, ptr %this, i64 24
  store float 0x47EFFFFFE0000000, ptr %m_breakingImpulseThreshold, align 8
  %m_isEnabled = getelementptr inbounds i8, ptr %this, i64 28
  store i8 1, ptr %m_isEnabled, align 4
  %m_needsFeedback = getelementptr inbounds i8, ptr %this, i64 29
  store i8 0, ptr %m_needsFeedback, align 1
  %m_overrideNumSolverIterations = getelementptr inbounds i8, ptr %this, i64 32
  store i32 -1, ptr %m_overrideNumSolverIterations, align 8
  %m_rbA = getelementptr inbounds i8, ptr %this, i64 40
  store ptr %rbA, ptr %m_rbA, align 8
  %m_rbB = getelementptr inbounds i8, ptr %this, i64 48
  store ptr %rbB, ptr %m_rbB, align 8
  %m_appliedImpulse = getelementptr inbounds i8, ptr %this, i64 56
  store <2 x float> <float 0.000000e+00, float 0x3FA99999A0000000>, ptr %m_appliedImpulse, align 8
  %m_jointFeedback = getelementptr inbounds i8, ptr %this, i64 64
  store ptr null, ptr %m_jointFeedback, align 8
  ret void
}